target datalayout = "e-m:e-p270:32:32-p271:32:32-p272:64:64-i64:64-i128:128-f80:128-n8:16:32:64-S128"
target triple = "x86_64-pc-linux-gnu"

%"class.boost::urls::detail::query_ref" = type <{ ptr, ptr, i64, i64, i64, i8, [7 x i8] }>
%"class.boost::urls::params_encoded_ref" = type { %"class.boost::urls::params_encoded_base", ptr }
%"class.boost::urls::params_encoded_base" = type { %"class.boost::urls::detail::query_ref" }
%"class.std::initializer_list.66" = type { ptr, i64 }

; Function Attrs: mustprogress nounwind uwtable
define void @_ZN5boost4urls8url_base14encoded_paramsEv(ptr dead_on_unwind noalias writable sret(%"class.boost::urls::params_encoded_ref") align 8 %0, ptr noundef nonnull align 8 dereferenceable(216) %1) #2 align 2 {
  %3 = alloca ptr, align 8
  store ptr %1, ptr %3, align 8, !tbaa !7
  %4 = load ptr, ptr %3, align 8
  call void @_ZN5boost4urls18params_encoded_refC1ERNS0_8url_baseE(ptr noundef nonnull align 8 dereferenceable(56) %0, ptr noundef nonnull align 8 dereferenceable(216) %4) #9
  ret void
}

; Function Attrs: mustprogress nounwind uwtable
define noundef nonnull align 8 dereferenceable(216) ptr @_ZN5boost4urls8url_base18set_encoded_paramsESt16initializer_listINS0_14param_pct_viewEE(ptr noundef nonnull align 8 dereferenceable(216) %0, ptr %1, i64 %2) #2 align 2 personality ptr @__gxx_personality_v0 {
  %4 = alloca %"class.std::initializer_list.66", align 8
  %5 = alloca ptr, align 8
  %6 = alloca %"class.boost::urls::params_encoded_ref", align 8
  %7 = alloca %"class.std::initializer_list.66", align 8
  %8 = getelementptr inbounds nuw { ptr, i64 }, ptr %4, i32 0, i32 0
  store ptr %1, ptr %8, align 8
  %9 = getelementptr inbounds nuw { ptr, i64 }, ptr %4, i32 0, i32 1
  store i64 %2, ptr %9, align 8
  store ptr %0, ptr %5, align 8, !tbaa !7
  %10 = load ptr, ptr %5, align 8
  call void @llvm.lifetime.start.p0(i64 56, ptr %6) #9
  call void @_ZN5boost4urls8url_base14encoded_paramsEv(ptr dead_on_unwind writable sret(%"class.boost::urls::params_encoded_ref") align 8 %6, ptr noundef nonnull align 8 dereferenceable(216) %10) #9
  call void @llvm.memcpy.p0.p0.i64(ptr align 8 %7, ptr align 8 %4, i64 16, i1 false), !tbaa.struct !37
  %11 = getelementptr inbounds nuw { ptr, i64 }, ptr %7, i32 0, i32 0
  %12 = load ptr, ptr %11, align 8
  %13 = getelementptr inbounds nuw { ptr, i64 }, ptr %7, i32 0, i32 1
  %14 = load i64, ptr %13, align 8
  invoke void @_ZN5boost4urls18params_encoded_ref6assignESt16initializer_listINS0_14param_pct_viewEE(ptr noundef nonnull align 8 dereferenceable(56) %6, ptr %12, i64 %14)
          to label %15 unwind label %16

15:                                               ; preds = %3
  call void @llvm.lifetime.end.p0(i64 56, ptr %6) #9
  ret ptr %10

16:                                               ; preds = %3
  %17 = landingpad { ptr, i32 }
          catch ptr null
  %18 = extractvalue { ptr, i32 } %17, 0
  call void @__clang_call_terminate(ptr %18) #21
  unreachable
}