; Function Attrs: mustprogress nounwind uwtable
define noundef nonnull align 8 dereferenceable(216) ptr @_ZN5boost4urls8url_base18set_encoded_paramsESt16initializer_listINS0_14param_pct_viewEE(ptr noundef nonnull returned align 8 dereferenceable(216) %0, ptr %1, i64 %2) local_unnamed_addr #6 align 2 personality ptr @__gxx_personality_v0 {
  %4 = alloca %"class.boost::urls::params_encoded_ref", align 8
  call void @llvm.lifetime.start.p0(i64 56, ptr nonnull %4) #30
  call void @_ZN5boost4urls18params_encoded_refC1ERNS0_8url_baseE(ptr noundef nonnull align 8 dereferenceable(56) %4, ptr noundef nonnull align 8 dereferenceable(216) %0) #30
  invoke void @_ZN5boost4urls18params_encoded_ref6assignESt16initializer_listINS0_14param_pct_viewEE(ptr noundef nonnull align 8 dereferenceable(56) %4, ptr %1, i64 %2)
          to label %5 unwind label %6

5:                                                ; preds = %3
  call void @llvm.lifetime.end.p0(i64 56, ptr nonnull %4) #30
  ret ptr %0

6:                                                ; preds = %3
  %7 = landingpad { ptr, i32 }
          catch ptr null
  %8 = extractvalue { ptr, i32 } %7, 0
  call void @__clang_call_terminate(ptr %8) #31
  unreachable
}